; Function Attrs: mustprogress uwtable
define void @_ZN3zmq12v1_encoder_tC2Em(ptr nocapture noundef nonnull writeonly align 8 dereferenceable(88) %this, i64 noundef %bufsize_) unnamed_addr #0 align 2 personality ptr @__gxx_personality_v0 {
entry:
  store ptr getelementptr inbounds ({ [6 x ptr] }, ptr @_ZTVN3zmq14encoder_base_tINS_12v1_encoder_tEEE, i64 0, i32 0, i64 2), ptr %this, align 8
  %_write_pos.i = getelementptr inbounds i8, ptr %this, i64 8
  %_buf_size.i = getelementptr inbounds i8, ptr %this, i64 48
  tail call void @llvm.memset.p0.i64(ptr noundef nonnull align 8 dereferenceable(33) %_write_pos.i, i8 0, i64 33, i1 false)
  store i64 %bufsize_, ptr %_buf_size.i, align 8
  %_buf.i = getelementptr inbounds i8, ptr %this, i64 56
  %call.i = tail call noalias ptr @malloc(i64 noundef %bufsize_) #13
  store ptr %call.i, ptr %_buf.i, align 8
  %_in_progress.i = getelementptr inbounds i8, ptr %this, i64 64
  store ptr null, ptr %_in_progress.i, align 8
  %tobool.not.i = icmp eq ptr %call.i, null
  br i1 %tobool.not.i, label %if.then.i, label %_ZN3zmq14encoder_base_tINS_12v1_encoder_tEEC2Em.exit

if.then.i:                                        ; preds = %entry
  %0 = load ptr, ptr @stderr, align 8
  %call3.i = tail call i32 (ptr, ptr, ...) @fprintf(ptr noundef %0, ptr noundef nonnull @.str, ptr noundef nonnull @.str.1, i32 noundef 39) #14
  %1 = load ptr, ptr @stderr, align 8
  %call5.i = tail call i32 @fflush(ptr noundef %1)
  tail call void @_ZN3zmq9zmq_abortEPKc(ptr noundef nonnull @.str.2)
  br label %_ZN3zmq14encoder_base_tINS_12v1_encoder_tEEC2Em.exit

_ZN3zmq14encoder_base_tINS_12v1_encoder_tEEC2Em.exit: ; preds = %entry, %if.then.i
  store ptr getelementptr inbounds ({ [6 x ptr] }, ptr @_ZTVN3zmq12v1_encoder_tE, i64 0, i32 0, i64 2), ptr %this, align 8
  %_next.i = getelementptr inbounds i8, ptr %this, i64 24
  tail call void @llvm.memset.p0.i64(ptr noundef nonnull align 8 dereferenceable(16) %_write_pos.i, i8 0, i64 16, i1 false)
  store i64 ptrtoint (ptr @_ZN3zmq12v1_encoder_t13message_readyEv to i64), ptr %_next.i, align 8
  %_next.repack1.i = getelementptr inbounds i8, ptr %this, i64 32
  store i64 0, ptr %_next.repack1.i, align 8
  %_new_msg_flag.i = getelementptr inbounds i8, ptr %this, i64 40
  store i8 1, ptr %_new_msg_flag.i, align 8
  ret void
}